; Function Attrs: mustprogress nofree norecurse nosync nounwind willreturn memory(read, inaccessiblemem: none) uwtable
define noundef ptr @_ZNK4LIEF5MachO9FatBinary2atEm(ptr nocapture noundef nonnull readonly align 8 dereferenceable(32) %0, i64 noundef %1) local_unnamed_addr #6 align 2 {
  %3 = getelementptr inbounds i8, ptr %0, i64 8
  %4 = getelementptr inbounds i8, ptr %0, i64 16
  %5 = load ptr, ptr %4, align 8
  %6 = load ptr, ptr %3, align 8
  %7 = ptrtoint ptr %5 to i64
  %8 = ptrtoint ptr %6 to i64
  %9 = sub i64 %7, %8
  %10 = ashr exact i64 %9, 3
  %.not = icmp ugt i64 %10, %1
  br i1 %.not, label %11, label %14

11:                                               ; preds = %2
  %12 = getelementptr inbounds %"class.std::unique_ptr", ptr %6, i64 %1
  %13 = load ptr, ptr %12, align 8
  br label %14

14:                                               ; preds = %2, %11
  %.0 = phi ptr [ %13, %11 ], [ null, %2 ]
  ret ptr %.0
}